; Function Attrs: nounwind uwtable
define internal range(i32 0, 2) i32 @sha512_256_internal_init(ptr noundef %0, ptr readnone captures(none) %1) #0 {
  %3 = tail call i32 @ossl_prov_is_running() #5
  %.not = icmp eq i32 %3, 0
  br i1 %.not, label %8, label %4

4:                                                ; preds = %2
  %5 = tail call i32 @sha512_256_init(ptr noundef %0) #5
  %6 = icmp ne i32 %5, 0
  %7 = zext i1 %6 to i32
  br label %8

8:                                                ; preds = %4, %2
  %9 = phi i32 [ 0, %2 ], [ %7, %4 ]
  ret i32 %9
}